target datalayout = "e-m:e-p270:32:32-p271:32:32-p272:64:64-i64:64-i128:128-f80:128-n8:16:32:64-S128"
target triple = "x86_64-unknown-linux-gnu"

%class.symbol = type { ptr }
%"class.datalog::tr_infrastructure<datalog::relation_traits>::plugin_object" = type { ptr, i32, %class.symbol, ptr }
%"class.datalog::finite_product_relation_plugin" = type { %"class.datalog::relation_plugin.base", ptr, %"class.datalog::rel_spec_store" }
%"class.datalog::relation_plugin.base" = type <{ %"class.datalog::tr_infrastructure<datalog::relation_traits>::plugin_object", i32 }>
%"class.datalog::rel_spec_store" = type { ptr, %class.svector.30, %class.map.32, %class.map.36 }
%class.svector.30 = type { %class.vector.31 }
%class.vector.31 = type { ptr }
%class.map.32 = type { %class.table2map.33 }
%class.table2map.33 = type { %class.core_hashtable.34 }
%class.core_hashtable.34 = type <{ ptr, i32, i32, i32, [4 x i8] }>
%class.map.36 = type { %class.table2map.37 }
%class.table2map.37 = type { %class.core_hashtable.38 }
%class.core_hashtable.38 = type <{ ptr, i32, i32, i32, [4 x i8] }>
%class.svector.40 = type { %class.vector.41 }
%class.vector.41 = type { ptr }
%"struct.datalog::finite_product_relation_plugin::rel_spec" = type { i32, %class.svector.40 }

; Function Attrs: mustprogress nounwind uwtable
define linkonce_odr hidden void @_ZN6vectorIbLb0EjEC2Ev(ptr noundef nonnull align 8 dereferenceable(8) %this) unnamed_addr #5 comdat align 2 {
entry:
  %this.addr = alloca ptr, align 8
  store ptr %this, ptr %this.addr, align 8
  %this1 = load ptr, ptr %this.addr, align 8
  %m_data = getelementptr inbounds %class.vector.41, ptr %this1, i32 0, i32 0
  store ptr null, ptr %m_data, align 8
  ret void
}

; Function Attrs: mustprogress nounwind uwtable
define linkonce_odr hidden void @_ZN7svectorIbjEC2Ev(ptr noundef nonnull align 8 dereferenceable(8) %this) unnamed_addr #5 comdat align 2 {
entry:
  %this.addr = alloca ptr, align 8
  store ptr %this, ptr %this.addr, align 8
  %this1 = load ptr, ptr %this.addr, align 8
  %0 = getelementptr inbounds i8, ptr %this1, i64 0
  call void @llvm.memset.p0.i64(ptr align 8 %0, i8 0, i64 8, i1 false)
  call void @_ZN6vectorIbLb0EjEC2Ev(ptr noundef nonnull align 8 dereferenceable(8) %this1) #3
  ret void
}

; Function Attrs: mustprogress nounwind uwtable
define linkonce_odr hidden noundef ptr @_ZNK6vectorIbLb0EjE4dataEv(ptr noundef nonnull align 8 dereferenceable(8) %this) #5 comdat align 2 {
entry:
  %this.addr = alloca ptr, align 8
  store ptr %this, ptr %this.addr, align 8
  %this1 = load ptr, ptr %this.addr, align 8
  %m_data = getelementptr inbounds %class.vector.41, ptr %this1, i32 0, i32 0
  %0 = load ptr, ptr %m_data, align 8
  ret ptr %0
}

; Function Attrs: mustprogress uwtable
define linkonce_odr hidden void @_ZN7datalog30finite_product_relation_plugin8rel_specC2Ev(ptr noundef nonnull align 8 dereferenceable(16) %this) unnamed_addr #4 comdat align 2 {
entry:
  %this.addr = alloca ptr, align 8
  store ptr %this, ptr %this.addr, align 8
  %this1 = load ptr, ptr %this.addr, align 8
  %m_inner_kind = getelementptr inbounds %"struct.datalog::finite_product_relation_plugin::rel_spec", ptr %this1, i32 0, i32 0
  store i32 -1, ptr %m_inner_kind, align 8
  %m_table_cols = getelementptr inbounds %"struct.datalog::finite_product_relation_plugin::rel_spec", ptr %this1, i32 0, i32 1
  call void @_ZN7svectorIbjEC2Ev(ptr noundef nonnull align 8 dereferenceable(8) %m_table_cols)
  ret void
}

; Function Attrs: mustprogress uwtable
define hidden noundef ptr @_ZN7datalog30finite_product_relation_plugin8mk_emptyERKNS_18relation_signatureEi(ptr noundef nonnull align 8 dereferenceable(112) %this, ptr noundef nonnull align 8 dereferenceable(8) %s, i32 noundef %kind) unnamed_addr #4 align 2 personality ptr @__gxx_personality_v0 {
entry:
  %this.addr = alloca ptr, align 8
  %s.addr = alloca ptr, align 8
  %kind.addr = alloca i32, align 4
  %spec = alloca %"struct.datalog::finite_product_relation_plugin::rel_spec", align 8
  %exn.slot = alloca ptr, align 8
  %ehselector.slot = alloca i32, align 4
  store ptr %this, ptr %this.addr, align 8
  store ptr %s, ptr %s.addr, align 8
  store i32 %kind, ptr %kind.addr, align 4
  %this1 = load ptr, ptr %this.addr, align 8
  call void @_ZN7datalog30finite_product_relation_plugin8rel_specC2Ev(ptr noundef nonnull align 8 dereferenceable(16) %spec)
  %m_spec_store = getelementptr inbounds %"class.datalog::finite_product_relation_plugin", ptr %this1, i32 0, i32 2
  %0 = load ptr, ptr %s.addr, align 8
  %1 = load i32, ptr %kind.addr, align 4
  invoke void @_ZN7datalog14rel_spec_storeINS_30finite_product_relation_plugin8rel_specENS2_4hashE10default_eqIS2_EE17get_relation_specERKNS_18relation_signatureEiRS2_(ptr noundef nonnull align 8 dereferenceable(64) %m_spec_store, ptr noundef nonnull align 8 dereferenceable(8) %0, i32 noundef %1, ptr noundef nonnull align 8 dereferenceable(16) %spec)
          to label %invoke.cont unwind label %lpad

invoke.cont:                                      ; preds = %entry
  %2 = load ptr, ptr %s.addr, align 8
  %m_table_cols = getelementptr inbounds %"struct.datalog::finite_product_relation_plugin::rel_spec", ptr %spec, i32 0, i32 1
  %call = invoke noundef ptr @_ZNK6vectorIbLb0EjE4dataEv(ptr noundef nonnull align 8 dereferenceable(8) %m_table_cols)
          to label %invoke.cont2 unwind label %lpad

invoke.cont2:                                     ; preds = %invoke.cont
  %m_inner_kind = getelementptr inbounds %"struct.datalog::finite_product_relation_plugin::rel_spec", ptr %spec, i32 0, i32 0
  %3 = load i32, ptr %m_inner_kind, align 8
  %call4 = invoke noundef ptr @_ZN7datalog30finite_product_relation_plugin8mk_emptyERKNS_18relation_signatureEPKbi(ptr noundef nonnull align 8 dereferenceable(112) %this1, ptr noundef nonnull align 8 dereferenceable(8) %2, ptr noundef %call, i32 noundef %3)
          to label %invoke.cont3 unwind label %lpad

invoke.cont3:                                     ; preds = %invoke.cont2
  call void @_ZN7datalog30finite_product_relation_plugin8rel_specD2Ev(ptr noundef nonnull align 8 dereferenceable(16) %spec) #3
  ret ptr %call4

lpad:                                             ; preds = %invoke.cont2, %invoke.cont, %entry
  %4 = landingpad { ptr, i32 }
          cleanup
  %5 = extractvalue { ptr, i32 } %4, 0
  store ptr %5, ptr %exn.slot, align 8
  %6 = extractvalue { ptr, i32 } %4, 1
  store i32 %6, ptr %ehselector.slot, align 4
  call void @_ZN7datalog30finite_product_relation_plugin8rel_specD2Ev(ptr noundef nonnull align 8 dereferenceable(16) %spec) #3
  br label %eh.resume

eh.resume:                                        ; preds = %lpad
  %exn = load ptr, ptr %exn.slot, align 8
  %sel = load i32, ptr %ehselector.slot, align 4
  %lpad.val = insertvalue { ptr, i32 } poison, ptr %exn, 0
  %lpad.val5 = insertvalue { ptr, i32 } %lpad.val, i32 %sel, 1
  resume { ptr, i32 } %lpad.val5
}