; Function Attrs: mustprogress uwtable
define hidden noundef ptr @_ZN7datalog30finite_product_relation_plugin8mk_emptyERKNS_18relation_signatureEi(ptr noundef nonnull align 8 dereferenceable(112) %this, ptr noundef nonnull align 8 dereferenceable(8) %s, i32 noundef %kind) unnamed_addr #3 align 2 personality ptr @__gxx_personality_v0 {
entry:
  %spec = alloca %"struct.datalog::finite_product_relation_plugin::rel_spec", align 8
  store i32 -1, ptr %spec, align 8
  %m_table_cols.i = getelementptr inbounds i8, ptr %spec, i64 8
  store ptr null, ptr %m_table_cols.i, align 8
  %m_spec_store = getelementptr inbounds i8, ptr %this, i64 48
  invoke void @_ZN7datalog14rel_spec_storeINS_30finite_product_relation_plugin8rel_specENS2_4hashE10default_eqIS2_EE17get_relation_specERKNS_18relation_signatureEiRS2_(ptr noundef nonnull align 8 dereferenceable(64) %m_spec_store, ptr noundef nonnull align 8 dereferenceable(8) %s, i32 noundef %kind, ptr noundef nonnull align 8 dereferenceable(16) %spec)
          to label %invoke.cont unwind label %lpad

invoke.cont:                                      ; preds = %entry
  %0 = load ptr, ptr %m_table_cols.i, align 8
  %1 = load i32, ptr %spec, align 8
  %call4 = invoke noundef ptr @_ZN7datalog30finite_product_relation_plugin8mk_emptyERKNS_18relation_signatureEPKbi(ptr noundef nonnull align 8 dereferenceable(112) %this, ptr noundef nonnull align 8 dereferenceable(8) %s, ptr noundef %0, i32 noundef %1)
          to label %invoke.cont3 unwind label %lpad

invoke.cont3:                                     ; preds = %invoke.cont
  %2 = load ptr, ptr %m_table_cols.i, align 8
  %tobool.not.i.i.i.i = icmp eq ptr %2, null
  br i1 %tobool.not.i.i.i.i, label %_ZN7datalog30finite_product_relation_plugin8rel_specD2Ev.exit, label %if.then.i.i.i.i

if.then.i.i.i.i:                                  ; preds = %invoke.cont3
  %add.ptr.i.i.i.i.i = getelementptr inbounds i8, ptr %2, i64 -8
  invoke void @_ZN6memory10deallocateEPv(ptr noundef nonnull %add.ptr.i.i.i.i.i)
          to label %_ZN7datalog30finite_product_relation_plugin8rel_specD2Ev.exit unwind label %terminate.lpad.i.i.i

terminate.lpad.i.i.i:                             ; preds = %if.then.i.i.i.i
  %3 = landingpad { ptr, i32 }
          catch ptr null
  %4 = extractvalue { ptr, i32 } %3, 0
  call void @__clang_call_terminate(ptr %4) #22
  unreachable

_ZN7datalog30finite_product_relation_plugin8rel_specD2Ev.exit: ; preds = %invoke.cont3, %if.then.i.i.i.i
  ret ptr %call4

lpad:                                             ; preds = %invoke.cont, %entry
  %5 = landingpad { ptr, i32 }
          cleanup
  call void @_ZN7datalog30finite_product_relation_plugin8rel_specD2Ev(ptr noundef nonnull align 8 dereferenceable(16) %spec) #20
  resume { ptr, i32 } %5
}